target datalayout = "e-m:e-p270:32:32-p271:32:32-p272:64:64-i64:64-i128:128-f80:128-n8:16:32:64-S128"
target triple = "x86_64-pc-linux-gnu"

%struct._ir_chain = type { i32, i32, %union.anon.16 }
%union.anon.16 = type { i32 }

; Function Attrs: noinline nounwind uwtable
define internal i32 @ir_chain_head_path_compress(ptr noundef %0, i32 noundef %1, i32 noundef %2) #11 {
  %4 = alloca ptr, align 8
  %5 = alloca i32, align 4
  %6 = alloca i32, align 4
  %7 = alloca i32, align 4
  store ptr %0, ptr %4, align 8, !tbaa !81
  store i32 %1, ptr %5, align 4, !tbaa !32
  store i32 %2, ptr %6, align 4, !tbaa !32
  br label %8

8:                                                ; preds = %15, %3
  %9 = load ptr, ptr %4, align 8, !tbaa !81
  %10 = load i32, ptr %6, align 4, !tbaa !32
  %11 = zext i32 %10 to i64
  %12 = getelementptr inbounds nuw %struct._ir_chain, ptr %9, i64 %11
  %13 = getelementptr inbounds nuw %struct._ir_chain, ptr %12, i32 0, i32 0
  %14 = load i32, ptr %13, align 4, !tbaa !83
  store i32 %14, ptr %6, align 4, !tbaa !32
  br label %15

15:                                               ; preds = %8
  %16 = load ptr, ptr %4, align 8, !tbaa !81
  %17 = load i32, ptr %6, align 4, !tbaa !32
  %18 = zext i32 %17 to i64
  %19 = getelementptr inbounds nuw %struct._ir_chain, ptr %16, i64 %18
  %20 = getelementptr inbounds nuw %struct._ir_chain, ptr %19, i32 0, i32 0
  %21 = load i32, ptr %20, align 4, !tbaa !83
  %22 = load i32, ptr %6, align 4, !tbaa !32
  %23 = icmp ne i32 %21, %22
  br i1 %23, label %8, label %24

24:                                               ; preds = %15
  br label %25

25:                                               ; preds = %39, %24
  call void @llvm.lifetime.start.p0(i64 4, ptr %7) #12
  %26 = load ptr, ptr %4, align 8, !tbaa !81
  %27 = load i32, ptr %5, align 4, !tbaa !32
  %28 = zext i32 %27 to i64
  %29 = getelementptr inbounds nuw %struct._ir_chain, ptr %26, i64 %28
  %30 = getelementptr inbounds nuw %struct._ir_chain, ptr %29, i32 0, i32 0
  %31 = load i32, ptr %30, align 4, !tbaa !83
  store i32 %31, ptr %7, align 4, !tbaa !32
  %32 = load i32, ptr %6, align 4, !tbaa !32
  %33 = load ptr, ptr %4, align 8, !tbaa !81
  %34 = load i32, ptr %5, align 4, !tbaa !32
  %35 = zext i32 %34 to i64
  %36 = getelementptr inbounds nuw %struct._ir_chain, ptr %33, i64 %35
  %37 = getelementptr inbounds nuw %struct._ir_chain, ptr %36, i32 0, i32 0
  store i32 %32, ptr %37, align 4, !tbaa !83
  %38 = load i32, ptr %7, align 4, !tbaa !32
  store i32 %38, ptr %5, align 4, !tbaa !32
  call void @llvm.lifetime.end.p0(i64 4, ptr %7) #12
  br label %39

39:                                               ; preds = %25
  %40 = load ptr, ptr %4, align 8, !tbaa !81
  %41 = load i32, ptr %5, align 4, !tbaa !32
  %42 = zext i32 %41 to i64
  %43 = getelementptr inbounds nuw %struct._ir_chain, ptr %40, i64 %42
  %44 = getelementptr inbounds nuw %struct._ir_chain, ptr %43, i32 0, i32 0
  %45 = load i32, ptr %44, align 4, !tbaa !83
  %46 = load i32, ptr %6, align 4, !tbaa !32
  %47 = icmp ne i32 %45, %46
  br i1 %47, label %25, label %48

48:                                               ; preds = %39
  %49 = load i32, ptr %6, align 4, !tbaa !32
  ret i32 %49
}