; Function Attrs: nofree noinline norecurse nosync nounwind memory(argmem: readwrite) uwtable
define internal fastcc i32 @ir_chain_head_path_compress(ptr noundef captures(none) %0, i32 noundef %1, i32 noundef %2) unnamed_addr #13 {
  %.phi.trans.insert = zext i32 %2 to i64
  %.phi.trans.insert17 = getelementptr inbounds nuw %struct._ir_chain, ptr %0, i64 %.phi.trans.insert
  %.pre = load i32, ptr %.phi.trans.insert17, align 4, !tbaa !65
  br label %4

4:                                                ; preds = %4, %3
  %5 = phi i32 [ %.pre, %3 ], [ %8, %4 ]
  %6 = zext i32 %5 to i64
  %7 = getelementptr inbounds nuw %struct._ir_chain, ptr %0, i64 %6
  %8 = load i32, ptr %7, align 4, !tbaa !65
  %.not = icmp eq i32 %8, %5
  br i1 %.not, label %.preheader, label %4

.preheader:                                       ; preds = %4
  %.phi.trans.insert18 = zext i32 %1 to i64
  %.phi.trans.insert19 = getelementptr inbounds nuw %struct._ir_chain, ptr %0, i64 %.phi.trans.insert18
  %.pre20 = load i32, ptr %.phi.trans.insert19, align 4, !tbaa !65
  br label %9

9:                                                ; preds = %.preheader, %9
  %10 = phi i32 [ %15, %9 ], [ %.pre20, %.preheader ]
  %.0 = phi i32 [ %10, %9 ], [ %1, %.preheader ]
  %11 = zext i32 %.0 to i64
  %12 = getelementptr inbounds nuw %struct._ir_chain, ptr %0, i64 %11
  store i32 %5, ptr %12, align 4, !tbaa !65
  %13 = zext i32 %10 to i64
  %14 = getelementptr inbounds nuw %struct._ir_chain, ptr %0, i64 %13
  %15 = load i32, ptr %14, align 4, !tbaa !65
  %.not16 = icmp eq i32 %15, %5
  br i1 %.not16, label %16, label %9

16:                                               ; preds = %9
  ret i32 %5
}